target datalayout = "e-m:e-p270:32:32-p271:32:32-p272:64:64-i64:64-i128:128-f80:128-n8:16:32:64-S128"
target triple = "x86_64-pc-linux-gnu"

@gbl_result = internal global i32 0, align 4
@.str.1 = private unnamed_addr constant [29 x i8] c"../openssl/test/exdatatest.c\00", align 1
@saved_argl = internal global i64 0, align 8
@saved_argp = internal global ptr null, align 8
@saved_idx2 = internal global i32 0, align 4
@saved_idx3 = internal global i32 0, align 4
@.str.17 = private unnamed_addr constant [5 x i8] c"argl\00", align 1
@.str.18 = private unnamed_addr constant [11 x i8] c"saved_argl\00", align 1
@.str.19 = private unnamed_addr constant [5 x i8] c"argp\00", align 1
@.str.20 = private unnamed_addr constant [11 x i8] c"saved_argp\00", align 1
@.str.23 = private unnamed_addr constant [39 x i8] c"idx == saved_idx2 || idx == saved_idx3\00", align 1
@.str.28 = private unnamed_addr constant [34 x i8] c"CRYPTO_set_ex_data(ad, idx, NULL)\00", align 1

; Function Attrs: nounwind uwtable
define internal void @exfree2(ptr noundef %0, ptr noundef %1, ptr noundef %2, i32 noundef %3, i64 noundef %4, ptr noundef %5) #0 {
  %7 = alloca ptr, align 8
  %8 = alloca ptr, align 8
  %9 = alloca ptr, align 8
  %10 = alloca i32, align 4
  %11 = alloca i64, align 8
  %12 = alloca ptr, align 8
  %13 = alloca ptr, align 8
  store ptr %0, ptr %7, align 8, !tbaa !17
  store ptr %1, ptr %8, align 8, !tbaa !17
  store ptr %2, ptr %9, align 8, !tbaa !25
  store i32 %3, ptr %10, align 4, !tbaa !11
  store i64 %4, ptr %11, align 8, !tbaa !15
  store ptr %5, ptr %12, align 8, !tbaa !17
  call void @llvm.lifetime.start.p0(i64 8, ptr %13) #3
  %14 = load ptr, ptr %9, align 8, !tbaa !25
  %15 = load i32, ptr %10, align 4, !tbaa !11
  %16 = call ptr @CRYPTO_get_ex_data(ptr noundef %14, i32 noundef %15)
  store ptr %16, ptr %13, align 8, !tbaa !9
  %17 = load i32, ptr %10, align 4, !tbaa !11
  %18 = load i32, ptr @saved_idx2, align 4, !tbaa !11
  %19 = icmp eq i32 %17, %18
  br i1 %19, label %24, label %20

20:                                               ; preds = %6
  %21 = load i32, ptr %10, align 4, !tbaa !11
  %22 = load i32, ptr @saved_idx3, align 4, !tbaa !11
  %23 = icmp eq i32 %21, %22
  br label %24

24:                                               ; preds = %20, %6
  %25 = phi i1 [ true, %6 ], [ %23, %20 ]
  %26 = zext i1 %25 to i32
  %27 = icmp ne i32 %26, 0
  %28 = zext i1 %27 to i32
  %29 = call i32 @test_true(ptr noundef @.str.1, i32 noundef 119, ptr noundef @.str.23, i32 noundef %28)
  %30 = icmp ne i32 %29, 0
  br i1 %30, label %31, label %49

31:                                               ; preds = %24
  %32 = load i64, ptr %11, align 8, !tbaa !15
  %33 = load i64, ptr @saved_argl, align 8, !tbaa !15
  %34 = call i32 @test_long_eq(ptr noundef @.str.1, i32 noundef 120, ptr noundef @.str.17, ptr noundef @.str.18, i64 noundef %32, i64 noundef %33)
  %35 = icmp ne i32 %34, 0
  br i1 %35, label %36, label %49

36:                                               ; preds = %31
  %37 = load ptr, ptr %12, align 8, !tbaa !17
  %38 = load ptr, ptr @saved_argp, align 8, !tbaa !17
  %39 = call i32 @test_ptr_eq(ptr noundef @.str.1, i32 noundef 121, ptr noundef @.str.19, ptr noundef @.str.20, ptr noundef %37, ptr noundef %38)
  %40 = icmp ne i32 %39, 0
  br i1 %40, label %41, label %49

41:                                               ; preds = %36
  %42 = load ptr, ptr %9, align 8, !tbaa !25
  %43 = load i32, ptr %10, align 4, !tbaa !11
  %44 = call i32 @CRYPTO_set_ex_data(ptr noundef %42, i32 noundef %43, ptr noundef null)
  %45 = icmp ne i32 %44, 0
  %46 = zext i1 %45 to i32
  %47 = call i32 @test_true(ptr noundef @.str.1, i32 noundef 122, ptr noundef @.str.28, i32 noundef %46)
  %48 = icmp ne i32 %47, 0
  br i1 %48, label %50, label %49

49:                                               ; preds = %41, %36, %31, %24
  store i32 0, ptr @gbl_result, align 4, !tbaa !11
  br label %50

50:                                               ; preds = %49, %41
  %51 = load ptr, ptr %13, align 8, !tbaa !9
  call void @CRYPTO_free(ptr noundef %51, ptr noundef @.str.1, i32 noundef 124)
  call void @llvm.lifetime.end.p0(i64 8, ptr %13) #3
  ret void
}