; Function Attrs: nounwind uwtable
define internal void @exfree2(ptr readnone captures(none) %0, ptr readnone captures(none) %1, ptr noundef %2, i32 noundef %3, i64 noundef %4, ptr noundef %5) #0 {
  %7 = tail call ptr @CRYPTO_get_ex_data(ptr noundef %2, i32 noundef %3) #2
  %8 = load i32, ptr @saved_idx2, align 4, !tbaa !8
  %9 = icmp eq i32 %3, %8
  %10 = load i32, ptr @saved_idx3, align 4
  %11 = icmp eq i32 %3, %10
  %12 = select i1 %9, i1 true, i1 %11
  %13 = zext i1 %12 to i32
  %14 = tail call i32 @test_true(ptr noundef nonnull @.str.1, i32 noundef 119, ptr noundef nonnull @.str.23, i32 noundef %13) #2
  %.not = icmp eq i32 %14, 0
  br i1 %.not, label %26, label %15

15:                                               ; preds = %6
  %.b = load i1, ptr @saved_argl, align 8
  %16 = select i1 %.b, i64 21, i64 0
  %17 = tail call i32 @test_long_eq(ptr noundef nonnull @.str.1, i32 noundef 120, ptr noundef nonnull @.str.17, ptr noundef nonnull @.str.18, i64 noundef %4, i64 noundef %16) #2
  %.not8 = icmp eq i32 %17, 0
  br i1 %.not8, label %26, label %18

18:                                               ; preds = %15
  %19 = load ptr, ptr @saved_argp, align 8, !tbaa !4
  %20 = tail call i32 @test_ptr_eq(ptr noundef nonnull @.str.1, i32 noundef 121, ptr noundef nonnull @.str.19, ptr noundef nonnull @.str.20, ptr noundef %5, ptr noundef %19) #2
  %.not9 = icmp eq i32 %20, 0
  br i1 %.not9, label %26, label %21

21:                                               ; preds = %18
  %22 = tail call i32 @CRYPTO_set_ex_data(ptr noundef %2, i32 noundef %3, ptr noundef null) #2
  %23 = icmp ne i32 %22, 0
  %24 = zext i1 %23 to i32
  %25 = tail call i32 @test_true(ptr noundef nonnull @.str.1, i32 noundef 122, ptr noundef nonnull @.str.28, i32 noundef %24) #2
  %.not10 = icmp eq i32 %25, 0
  br i1 %.not10, label %26, label %27

26:                                               ; preds = %21, %18, %15, %6
  store i1 false, ptr @gbl_result, align 4
  br label %27

27:                                               ; preds = %26, %21
  tail call void @CRYPTO_free(ptr noundef %7, ptr noundef nonnull @.str.1, i32 noundef 124) #2
  ret void
}